; Function Attrs: uwtable
define hidden void @_ZThn32_N5array6solver14finalize_modelER5model(ptr nocapture noundef readonly %this, ptr nocapture noundef nonnull readnone align 8 dereferenceable(160) %mdl) unnamed_addr #4 align 2 personality ptr @__gxx_personality_v0 {
entry:
  %m_selects_range.i = getelementptr inbounds i8, ptr %this, i64 496
  %0 = load ptr, ptr %m_selects_range.i, align 8
  %cmp.i.i.i = icmp eq ptr %0, null
  br i1 %cmp.i.i.i, label %_ZN5array6solver14finalize_modelER5model.exit, label %_ZN6vectorIP13ptr_hashtableIN3euf5enodeEN5array6solver8sel_hashENS4_6sel_eqEELb0EjE3endEv.exit.i

_ZN6vectorIP13ptr_hashtableIN3euf5enodeEN5array6solver8sel_hashENS4_6sel_eqEELb0EjE3endEv.exit.i: ; preds = %entry
  %arrayidx.i.i.i = getelementptr inbounds i8, ptr %0, i64 -4
  %1 = load i32, ptr %arrayidx.i.i.i, align 4
  %2 = zext i32 %1 to i64
  %add.ptr.i.i = getelementptr inbounds ptr, ptr %0, i64 %2
  %cmp.not3.i.i = icmp eq i32 %1, 0
  br i1 %cmp.not3.i.i, label %_ZN5array6solver14finalize_modelER5model.exit, label %for.body.i.i

for.body.i.i:                                     ; preds = %_ZN6vectorIP13ptr_hashtableIN3euf5enodeEN5array6solver8sel_hashENS4_6sel_eqEELb0EjE3endEv.exit.i, %_ZN11delete_procI13ptr_hashtableIN3euf5enodeEN5array6solver8sel_hashENS4_6sel_eqEEEclEPS7_.exit.i.i
  %__first.addr.04.i.i = phi ptr [ %incdec.ptr.i.i, %_ZN11delete_procI13ptr_hashtableIN3euf5enodeEN5array6solver8sel_hashENS4_6sel_eqEEEclEPS7_.exit.i.i ], [ %0, %_ZN6vectorIP13ptr_hashtableIN3euf5enodeEN5array6solver8sel_hashENS4_6sel_eqEELb0EjE3endEv.exit.i ]
  %3 = load ptr, ptr %__first.addr.04.i.i, align 8
  %tobool.not.i.i.i = icmp eq ptr %3, null
  br i1 %tobool.not.i.i.i, label %_ZN11delete_procI13ptr_hashtableIN3euf5enodeEN5array6solver8sel_hashENS4_6sel_eqEEEclEPS7_.exit.i.i, label %if.end.i.i.i.i

if.end.i.i.i.i:                                   ; preds = %for.body.i.i
  %4 = load ptr, ptr %3, align 8
  %cmp.i.i.i.i.i.i.i.i = icmp eq ptr %4, null
  br i1 %cmp.i.i.i.i.i.i.i.i, label %_Z7deallocI13ptr_hashtableIN3euf5enodeEN5array6solver8sel_hashENS4_6sel_eqEEEvPT_.exit.i.i.i, label %for.cond.preheader.i.i.i.i.i.i.i.i

for.cond.preheader.i.i.i.i.i.i.i.i:               ; preds = %if.end.i.i.i.i
  invoke void @_ZN6memory10deallocateEPv(ptr noundef nonnull %4)
          to label %_Z7deallocI13ptr_hashtableIN3euf5enodeEN5array6solver8sel_hashENS4_6sel_eqEEEvPT_.exit.i.i.i unwind label %terminate.lpad.i.i.i.i.i.i

terminate.lpad.i.i.i.i.i.i:                       ; preds = %for.cond.preheader.i.i.i.i.i.i.i.i
  %5 = landingpad { ptr, i32 }
          catch ptr null
  %6 = extractvalue { ptr, i32 } %5, 0
  tail call void @__clang_call_terminate(ptr %6) #18
  unreachable

_Z7deallocI13ptr_hashtableIN3euf5enodeEN5array6solver8sel_hashENS4_6sel_eqEEEvPT_.exit.i.i.i: ; preds = %for.cond.preheader.i.i.i.i.i.i.i.i, %if.end.i.i.i.i
  store ptr null, ptr %3, align 8
  tail call void @_ZN6memory10deallocateEPv(ptr noundef nonnull %3)
  br label %_ZN11delete_procI13ptr_hashtableIN3euf5enodeEN5array6solver8sel_hashENS4_6sel_eqEEEclEPS7_.exit.i.i

_ZN11delete_procI13ptr_hashtableIN3euf5enodeEN5array6solver8sel_hashENS4_6sel_eqEEEclEPS7_.exit.i.i: ; preds = %_Z7deallocI13ptr_hashtableIN3euf5enodeEN5array6solver8sel_hashENS4_6sel_eqEEEvPT_.exit.i.i.i, %for.body.i.i
  %incdec.ptr.i.i = getelementptr inbounds i8, ptr %__first.addr.04.i.i, i64 8
  %cmp.not.i.i = icmp eq ptr %incdec.ptr.i.i, %add.ptr.i.i
  br i1 %cmp.not.i.i, label %_ZN5array6solver14finalize_modelER5model.exit, label %for.body.i.i, !llvm.loop !16

_ZN5array6solver14finalize_modelER5model.exit:    ; preds = %_ZN11delete_procI13ptr_hashtableIN3euf5enodeEN5array6solver8sel_hashENS4_6sel_eqEEEclEPS7_.exit.i.i, %entry, %_ZN6vectorIP13ptr_hashtableIN3euf5enodeEN5array6solver8sel_hashENS4_6sel_eqEELb0EjE3endEv.exit.i
  ret void
}